target datalayout = "e-m:e-p270:32:32-p271:32:32-p272:64:64-i64:64-i128:128-f80:128-n8:16:32:64-S128"
target triple = "x86_64-pc-linux-gnu"

%"class.std::__cxx11::basic_string" = type { %"struct.std::__cxx11::basic_string<char>::_Alloc_hider", i64, %union.anon }
%"struct.std::__cxx11::basic_string<char>::_Alloc_hider" = type { ptr }
%union.anon = type { i64, [8 x i8] }
%"class.std::allocator" = type { i8 }
%"class.gmx::TextLineWrapperSettings" = type <{ i32, i32, i32, i8, i8, [2 x i8] }>
%"class.gmx::TextLineWrapper" = type { %"class.gmx::TextLineWrapperSettings" }

; Function Attrs: mustprogress nounwind uwtable
define linkonce_odr void @_ZNSt7__cxx1112basic_stringIcSt11char_traitsIcESaIcEE12_Alloc_hiderD2Ev(ptr noundef nonnull align 8 dereferenceable(8) %0) unnamed_addr #0 comdat align 2 {
  %2 = alloca ptr, align 8
  store ptr %0, ptr %2, align 8
  %3 = load ptr, ptr %2, align 8
  call void @_ZNSaIcED2Ev(ptr noundef nonnull align 1 dereferenceable(1) %3) #13
  ret void
}

; Function Attrs: mustprogress uwtable
define linkonce_odr void @_ZNSt7__cxx1112basic_stringIcSt11char_traitsIcESaIcEEC2IS3_EEmcRKS3_(ptr noundef nonnull align 8 dereferenceable(32) %0, i64 noundef %1, i8 noundef signext %2, ptr noundef nonnull align 1 dereferenceable(1) %3) unnamed_addr #3 comdat align 2 personality ptr @__gxx_personality_v0 {
  %5 = alloca ptr, align 8
  %6 = alloca i64, align 8
  %7 = alloca i8, align 1
  %8 = alloca ptr, align 8
  %9 = alloca ptr, align 8
  %10 = alloca i32, align 4
  store ptr %0, ptr %5, align 8
  store i64 %1, ptr %6, align 8
  store i8 %2, ptr %7, align 1
  store ptr %3, ptr %8, align 8
  %11 = load ptr, ptr %5, align 8
  %12 = getelementptr inbounds %"class.std::__cxx11::basic_string", ptr %11, i32 0, i32 0
  %13 = call noundef ptr @_ZNSt7__cxx1112basic_stringIcSt11char_traitsIcESaIcEE13_M_local_dataEv(ptr noundef nonnull align 8 dereferenceable(32) %11)
  %14 = load ptr, ptr %8, align 8
  call void @_ZNSt7__cxx1112basic_stringIcSt11char_traitsIcESaIcEE12_Alloc_hiderC1EPcRKS3_(ptr noundef nonnull align 8 dereferenceable(8) %12, ptr noundef %13, ptr noundef nonnull align 1 dereferenceable(1) %14)
  %15 = load i64, ptr %6, align 8
  %16 = load i8, ptr %7, align 1
  invoke void @_ZNSt7__cxx1112basic_stringIcSt11char_traitsIcESaIcEE12_M_constructEmc(ptr noundef nonnull align 8 dereferenceable(32) %11, i64 noundef %15, i8 noundef signext %16)
          to label %17 unwind label %18

17:                                               ; preds = %4
  ret void

18:                                               ; preds = %4
  %19 = landingpad { ptr, i32 }
          cleanup
  %20 = extractvalue { ptr, i32 } %19, 0
  store ptr %20, ptr %9, align 8
  %21 = extractvalue { ptr, i32 } %19, 1
  store i32 %21, ptr %10, align 4
  call void @_ZNSt7__cxx1112basic_stringIcSt11char_traitsIcESaIcEE12_Alloc_hiderD2Ev(ptr noundef nonnull align 8 dereferenceable(8) %12) #13
  br label %22

22:                                               ; preds = %18
  %23 = load ptr, ptr %9, align 8
  %24 = load i32, ptr %10, align 4
  %25 = insertvalue { ptr, i32 } poison, ptr %23, 0
  %26 = insertvalue { ptr, i32 } %25, i32 %24, 1
  resume { ptr, i32 } %26
}

; Function Attrs: mustprogress nounwind uwtable
define linkonce_odr noundef i32 @_ZNK3gmx23TextLineWrapperSettings6indentEv(ptr noundef nonnull align 4 dereferenceable(14) %0) #0 comdat align 2 {
  %2 = alloca ptr, align 8
  store ptr %0, ptr %2, align 8
  %3 = load ptr, ptr %2, align 8
  %4 = getelementptr inbounds %"class.gmx::TextLineWrapperSettings", ptr %3, i32 0, i32 1
  %5 = load i32, ptr %4, align 4
  ret i32 %5
}

; Function Attrs: mustprogress nounwind uwtable
define linkonce_odr noundef i32 @_ZNK3gmx23TextLineWrapperSettings15firstLineIndentEv(ptr noundef nonnull align 4 dereferenceable(14) %0) #0 comdat align 2 {
  %2 = alloca ptr, align 8
  store ptr %0, ptr %2, align 8
  %3 = load ptr, ptr %2, align 8
  %4 = getelementptr inbounds %"class.gmx::TextLineWrapperSettings", ptr %3, i32 0, i32 2
  %5 = load i32, ptr %4, align 4
  %6 = icmp sge i32 %5, 0
  br i1 %6, label %7, label %10

7:                                                ; preds = %1
  %8 = getelementptr inbounds %"class.gmx::TextLineWrapperSettings", ptr %3, i32 0, i32 2
  %9 = load i32, ptr %8, align 4
  br label %13

10:                                               ; preds = %1
  %11 = getelementptr inbounds %"class.gmx::TextLineWrapperSettings", ptr %3, i32 0, i32 1
  %12 = load i32, ptr %11, align 4
  br label %13

13:                                               ; preds = %10, %7
  %14 = phi i32 [ %9, %7 ], [ %12, %10 ]
  ret i32 %14
}

; Function Attrs: mustprogress uwtable
define void @_ZNK3gmx15TextLineWrapper10formatLineERKNSt7__cxx1112basic_stringIcSt11char_traitsIcESaIcEEEmm(ptr dead_on_unwind noalias writable sret(%"class.std::__cxx11::basic_string") align 8 %0, ptr noundef nonnull align 4 dereferenceable(16) %1, ptr noundef nonnull align 8 dereferenceable(32) %2, i64 noundef %3, i64 noundef %4) #3 align 2 personality ptr @__gxx_personality_v0 {
  %6 = alloca ptr, align 8
  %7 = alloca ptr, align 8
  %8 = alloca ptr, align 8
  %9 = alloca i64, align 8
  %10 = alloca i64, align 8
  %11 = alloca i64, align 8
  %12 = alloca i8, align 1
  %13 = alloca i32, align 4
  %14 = alloca i8, align 1
  %15 = alloca i64, align 8
  %16 = alloca i1, align 1
  %17 = alloca %"class.std::allocator", align 1
  %18 = alloca ptr, align 8
  %19 = alloca i32, align 4
  store ptr %0, ptr %6, align 8
  store ptr %1, ptr %7, align 8
  store ptr %2, ptr %8, align 8
  store i64 %3, ptr %9, align 8
  store i64 %4, ptr %10, align 8
  %20 = load ptr, ptr %7, align 8
  %21 = load ptr, ptr %8, align 8
  %22 = call noundef i64 @_ZNKSt7__cxx1112basic_stringIcSt11char_traitsIcESaIcEE6lengthEv(ptr noundef nonnull align 8 dereferenceable(32) %21) #13
  store i64 %22, ptr %11, align 8
  %23 = load i64, ptr %9, align 8
  %24 = icmp eq i64 %23, 0
  br i1 %24, label %33, label %25

25:                                               ; preds = %5
  %26 = load ptr, ptr %8, align 8
  %27 = load i64, ptr %9, align 8
  %28 = sub i64 %27, 1
  %29 = call noundef nonnull align 1 dereferenceable(1) ptr @_ZNKSt7__cxx1112basic_stringIcSt11char_traitsIcESaIcEEixEm(ptr noundef nonnull align 8 dereferenceable(32) %26, i64 noundef %28) #13
  %30 = load i8, ptr %29, align 1
  %31 = sext i8 %30 to i32
  %32 = icmp eq i32 %31, 10
  br label %33

33:                                               ; preds = %25, %5
  %34 = phi i1 [ true, %5 ], [ %32, %25 ]
  %35 = zext i1 %34 to i8
  store i8 %35, ptr %12, align 1
  %36 = load i8, ptr %12, align 1
  %37 = trunc i8 %36 to i1
  br i1 %37, label %47, label %38

38:                                               ; preds = %33
  %39 = load ptr, ptr %8, align 8
  %40 = load i64, ptr %9, align 8
  %41 = call noundef i64 @_ZNKSt7__cxx1112basic_stringIcSt11char_traitsIcESaIcEE17find_first_not_ofEcm(ptr noundef nonnull align 8 dereferenceable(32) %39, i8 noundef signext 32, i64 noundef %40) #13
  store i64 %41, ptr %9, align 8
  %42 = load i64, ptr %9, align 8
  %43 = load i64, ptr %11, align 8
  %44 = icmp uge i64 %42, %43
  br i1 %44, label %45, label %46

45:                                               ; preds = %38
  call void @_ZNSt7__cxx1112basic_stringIcSt11char_traitsIcESaIcEEC1Ev(ptr noundef nonnull align 8 dereferenceable(32) %0) #13
  br label %161

46:                                               ; preds = %38
  br label %47

47:                                               ; preds = %46, %33
  %48 = load i8, ptr %12, align 1
  %49 = trunc i8 %48 to i1
  br i1 %49, label %50, label %53

50:                                               ; preds = %47
  %51 = getelementptr inbounds %"class.gmx::TextLineWrapper", ptr %20, i32 0, i32 0
  %52 = call noundef i32 @_ZNK3gmx23TextLineWrapperSettings15firstLineIndentEv(ptr noundef nonnull align 4 dereferenceable(14) %51)
  br label %56

53:                                               ; preds = %47
  %54 = getelementptr inbounds %"class.gmx::TextLineWrapper", ptr %20, i32 0, i32 0
  %55 = call noundef i32 @_ZNK3gmx23TextLineWrapperSettings6indentEv(ptr noundef nonnull align 4 dereferenceable(14) %54)
  br label %56

56:                                               ; preds = %53, %50
  %57 = phi i32 [ %52, %50 ], [ %55, %53 ]
  store i32 %57, ptr %13, align 4
  %58 = load i64, ptr %10, align 8
  %59 = load i64, ptr %11, align 8
  %60 = icmp ult i64 %58, %59
  br i1 %60, label %61, label %69

61:                                               ; preds = %56
  %62 = load ptr, ptr %8, align 8
  %63 = load i64, ptr %10, align 8
  %64 = sub i64 %63, 1
  %65 = call noundef nonnull align 1 dereferenceable(1) ptr @_ZNKSt7__cxx1112basic_stringIcSt11char_traitsIcESaIcEEixEm(ptr noundef nonnull align 8 dereferenceable(32) %62, i64 noundef %64) #13
  %66 = load i8, ptr %65, align 1
  %67 = sext i8 %66 to i32
  %68 = icmp ne i32 %67, 10
  br label %69

69:                                               ; preds = %61, %56
  %70 = phi i1 [ false, %56 ], [ %68, %61 ]
  %71 = zext i1 %70 to i8
  store i8 %71, ptr %14, align 1
  br label %72

72:                                               ; preds = %86, %69
  %73 = load i64, ptr %10, align 8
  %74 = load i64, ptr %9, align 8
  %75 = icmp ugt i64 %73, %74
  br i1 %75, label %76, label %84

76:                                               ; preds = %72
  %77 = load ptr, ptr %8, align 8
  %78 = load i64, ptr %10, align 8
  %79 = sub i64 %78, 1
  %80 = call noundef nonnull align 1 dereferenceable(1) ptr @_ZNKSt7__cxx1112basic_stringIcSt11char_traitsIcESaIcEEixEm(ptr noundef nonnull align 8 dereferenceable(32) %77, i64 noundef %79) #13
  %81 = load i8, ptr %80, align 1
  %82 = sext i8 %81 to i32
  %83 = icmp eq i32 %82, 10
  br label %84

84:                                               ; preds = %76, %72
  %85 = phi i1 [ false, %72 ], [ %83, %76 ]
  br i1 %85, label %86, label %89

86:                                               ; preds = %84
  %87 = load i64, ptr %10, align 8
  %88 = add i64 %87, -1
  store i64 %88, ptr %10, align 8
  br label %72, !llvm.loop !24

89:                                               ; preds = %84
  %90 = load i8, ptr %14, align 1
  %91 = trunc i8 %90 to i1
  br i1 %91, label %97, label %92

92:                                               ; preds = %89
  %93 = getelementptr inbounds %"class.gmx::TextLineWrapper", ptr %20, i32 0, i32 0
  %94 = getelementptr inbounds %"class.gmx::TextLineWrapperSettings", ptr %93, i32 0, i32 3
  %95 = load i8, ptr %94, align 4
  %96 = trunc i8 %95 to i1
  br i1 %96, label %117, label %97

97:                                               ; preds = %92, %89
  br label %98

98:                                               ; preds = %113, %97
  %99 = load i64, ptr %10, align 8
  %100 = load i64, ptr %9, align 8
  %101 = icmp ugt i64 %99, %100
  br i1 %101, label %102, label %111

102:                                              ; preds = %98
  %103 = load ptr, ptr %8, align 8
  %104 = load i64, ptr %10, align 8
  %105 = sub i64 %104, 1
  %106 = call noundef nonnull align 1 dereferenceable(1) ptr @_ZNKSt7__cxx1112basic_stringIcSt11char_traitsIcESaIcEEixEm(ptr noundef nonnull align 8 dereferenceable(32) %103, i64 noundef %105) #13
  %107 = load i8, ptr %106, align 1
  %108 = sext i8 %107 to i32
  %109 = call i32 @isspace(i32 noundef %108) #12
  %110 = icmp ne i32 %109, 0
  br label %111

111:                                              ; preds = %102, %98
  %112 = phi i1 [ false, %98 ], [ %110, %102 ]
  br i1 %112, label %113, label %116

113:                                              ; preds = %111
  %114 = load i64, ptr %10, align 8
  %115 = add i64 %114, -1
  store i64 %115, ptr %10, align 8
  br label %98, !llvm.loop !25

116:                                              ; preds = %111
  br label %117

117:                                              ; preds = %116, %92
  %118 = load i64, ptr %10, align 8
  %119 = load i64, ptr %9, align 8
  %120 = sub i64 %118, %119
  store i64 %120, ptr %15, align 8
  %121 = load i64, ptr %15, align 8
  %122 = icmp eq i64 %121, 0
  br i1 %122, label %123, label %124

123:                                              ; preds = %117
  call void @_ZNSt7__cxx1112basic_stringIcSt11char_traitsIcESaIcEEC1Ev(ptr noundef nonnull align 8 dereferenceable(32) %0) #13
  br label %161

124:                                              ; preds = %117
  store i1 false, ptr %16, align 1
  %125 = load i32, ptr %13, align 4
  %126 = sext i32 %125 to i64
  call void @_ZNSaIcEC1Ev(ptr noundef nonnull align 1 dereferenceable(1) %17) #13
  invoke void @_ZNSt7__cxx1112basic_stringIcSt11char_traitsIcESaIcEEC2IS3_EEmcRKS3_(ptr noundef nonnull align 8 dereferenceable(32) %0, i64 noundef %126, i8 noundef signext 32, ptr noundef nonnull align 1 dereferenceable(1) %17)
          to label %127 unwind label %149

127:                                              ; preds = %124
  call void @_ZNSaIcED1Ev(ptr noundef nonnull align 1 dereferenceable(1) %17) #13
  %128 = load ptr, ptr %8, align 8
  %129 = load i64, ptr %9, align 8
  %130 = load i64, ptr %15, align 8
  %131 = invoke noundef nonnull align 8 dereferenceable(32) ptr @_ZNSt7__cxx1112basic_stringIcSt11char_traitsIcESaIcEE6appendERKS4_mm(ptr noundef nonnull align 8 dereferenceable(32) %0, ptr noundef nonnull align 8 dereferenceable(32) %128, i64 noundef %129, i64 noundef %130)
          to label %132 unwind label %153

132:                                              ; preds = %127
  %133 = load i8, ptr %14, align 1
  %134 = trunc i8 %133 to i1
  br i1 %134, label %135, label %157

135:                                              ; preds = %132
  %136 = getelementptr inbounds %"class.gmx::TextLineWrapper", ptr %20, i32 0, i32 0
  %137 = getelementptr inbounds %"class.gmx::TextLineWrapperSettings", ptr %136, i32 0, i32 4
  %138 = load i8, ptr %137, align 1
  %139 = sext i8 %138 to i32
  %140 = icmp ne i32 %139, 0
  br i1 %140, label %141, label %157

141:                                              ; preds = %135
  %142 = invoke noundef nonnull align 8 dereferenceable(32) ptr @_ZNSt7__cxx1112basic_stringIcSt11char_traitsIcESaIcEE6appendEmc(ptr noundef nonnull align 8 dereferenceable(32) %0, i64 noundef 1, i8 noundef signext 32)
          to label %143 unwind label %153

143:                                              ; preds = %141
  %144 = getelementptr inbounds %"class.gmx::TextLineWrapper", ptr %20, i32 0, i32 0
  %145 = getelementptr inbounds %"class.gmx::TextLineWrapperSettings", ptr %144, i32 0, i32 4
  %146 = load i8, ptr %145, align 1
  %147 = invoke noundef nonnull align 8 dereferenceable(32) ptr @_ZNSt7__cxx1112basic_stringIcSt11char_traitsIcESaIcEE6appendEmc(ptr noundef nonnull align 8 dereferenceable(32) %0, i64 noundef 1, i8 noundef signext %146)
          to label %148 unwind label %153

148:                                              ; preds = %143
  br label %157

149:                                              ; preds = %124
  %150 = landingpad { ptr, i32 }
          cleanup
  %151 = extractvalue { ptr, i32 } %150, 0
  store ptr %151, ptr %18, align 8
  %152 = extractvalue { ptr, i32 } %150, 1
  store i32 %152, ptr %19, align 4
  call void @_ZNSaIcED1Ev(ptr noundef nonnull align 1 dereferenceable(1) %17) #13
  br label %162

153:                                              ; preds = %143, %141, %127
  %154 = landingpad { ptr, i32 }
          cleanup
  %155 = extractvalue { ptr, i32 } %154, 0
  store ptr %155, ptr %18, align 8
  %156 = extractvalue { ptr, i32 } %154, 1
  store i32 %156, ptr %19, align 4
  call void @_ZNSt7__cxx1112basic_stringIcSt11char_traitsIcESaIcEED1Ev(ptr noundef nonnull align 8 dereferenceable(32) %0) #13
  br label %162

157:                                              ; preds = %148, %135, %132
  store i1 true, ptr %16, align 1
  %158 = load i1, ptr %16, align 1
  br i1 %158, label %160, label %159

159:                                              ; preds = %157
  call void @_ZNSt7__cxx1112basic_stringIcSt11char_traitsIcESaIcEED1Ev(ptr noundef nonnull align 8 dereferenceable(32) %0) #13
  br label %160

160:                                              ; preds = %159, %157
  br label %161

161:                                              ; preds = %160, %123, %45
  ret void

162:                                              ; preds = %153, %149
  %163 = load ptr, ptr %18, align 8
  %164 = load i32, ptr %19, align 4
  %165 = insertvalue { ptr, i32 } poison, ptr %163, 0
  %166 = insertvalue { ptr, i32 } %165, i32 %164, 1
  resume { ptr, i32 } %166
}