; Function Attrs: mustprogress uwtable
define void @_ZNK3gmx15TextLineWrapper10formatLineERKNSt7__cxx1112basic_stringIcSt11char_traitsIcESaIcEEEmm(ptr dead_on_unwind noalias writable sret(%"class.std::__cxx11::basic_string") align 8 %0, ptr nocapture noundef nonnull readonly align 4 dereferenceable(16) %1, ptr noundef nonnull align 8 dereferenceable(32) %2, i64 noundef %3, i64 noundef %4) local_unnamed_addr #6 align 2 personality ptr @__gxx_personality_v0 {
  %6 = alloca %"class.std::allocator", align 1
  %7 = tail call noundef i64 @_ZNKSt7__cxx1112basic_stringIcSt11char_traitsIcESaIcEE6lengthEv(ptr noundef nonnull align 8 dereferenceable(32) %2) #22
  %8 = icmp eq i64 %3, 0
  br i1 %8, label %.thread, label %9

9:                                                ; preds = %5
  %10 = add i64 %3, -1
  %11 = tail call noundef nonnull align 1 dereferenceable(1) ptr @_ZNKSt7__cxx1112basic_stringIcSt11char_traitsIcESaIcEEixEm(ptr noundef nonnull align 8 dereferenceable(32) %2, i64 noundef %10) #22
  %12 = load i8, ptr %11, align 1
  %13 = icmp eq i8 %12, 10
  br i1 %13, label %.thread, label %14

14:                                               ; preds = %9
  %15 = tail call noundef i64 @_ZNKSt7__cxx1112basic_stringIcSt11char_traitsIcESaIcEE17find_first_not_ofEcm(ptr noundef nonnull align 8 dereferenceable(32) %2, i8 noundef signext 32, i64 noundef %3) #22
  %.not = icmp ult i64 %15, %7
  br i1 %.not, label %22, label %.sink.split

.thread:                                          ; preds = %5, %9
  %16 = getelementptr inbounds i8, ptr %1, i64 8
  %17 = load i32, ptr %16, align 4
  %18 = getelementptr inbounds i8, ptr %1, i64 4
  %19 = load i32, ptr %18, align 4
  %20 = icmp slt i32 %17, 0
  %21 = select i1 %20, i32 %19, i32 %17
  br label %25

22:                                               ; preds = %14
  %23 = getelementptr inbounds i8, ptr %1, i64 4
  %24 = load i32, ptr %23, align 4
  br label %25

25:                                               ; preds = %22, %.thread
  %.03951 = phi i64 [ %3, %.thread ], [ %15, %22 ]
  %26 = phi i32 [ %21, %.thread ], [ %24, %22 ]
  %27 = icmp ugt i64 %7, %4
  br i1 %27, label %28, label %33

28:                                               ; preds = %25
  %29 = add i64 %4, -1
  %30 = tail call noundef nonnull align 1 dereferenceable(1) ptr @_ZNKSt7__cxx1112basic_stringIcSt11char_traitsIcESaIcEEixEm(ptr noundef nonnull align 8 dereferenceable(32) %2, i64 noundef %29) #22
  %31 = load i8, ptr %30, align 1
  %32 = icmp ne i8 %31, 10
  br label %33

33:                                               ; preds = %28, %25
  %34 = phi i1 [ false, %25 ], [ %32, %28 ]
  br label %35

35:                                               ; preds = %37, %33
  %.040 = phi i64 [ %4, %33 ], [ %38, %37 ]
  %36 = icmp ugt i64 %.040, %.03951
  br i1 %36, label %37, label %.critedge

37:                                               ; preds = %35
  %38 = add i64 %.040, -1
  %39 = tail call noundef nonnull align 1 dereferenceable(1) ptr @_ZNKSt7__cxx1112basic_stringIcSt11char_traitsIcESaIcEEixEm(ptr noundef nonnull align 8 dereferenceable(32) %2, i64 noundef %38) #22
  %40 = load i8, ptr %39, align 1
  %41 = icmp eq i8 %40, 10
  br i1 %41, label %35, label %.critedge, !llvm.loop !24

.critedge:                                        ; preds = %35, %37
  br i1 %34, label %.preheader, label %42

42:                                               ; preds = %.critedge
  %43 = getelementptr inbounds i8, ptr %1, i64 12
  %44 = load i8, ptr %43, align 4
  %45 = trunc i8 %44 to i1
  br i1 %45, label %.critedge2, label %.preheader

.preheader:                                       ; preds = %42, %.critedge
  br label %46

46:                                               ; preds = %.preheader, %48
  %.1 = phi i64 [ %49, %48 ], [ %.040, %.preheader ]
  %47 = icmp ugt i64 %.1, %.03951
  br i1 %47, label %48, label %.critedge2

48:                                               ; preds = %46
  %49 = add i64 %.1, -1
  %50 = tail call noundef nonnull align 1 dereferenceable(1) ptr @_ZNKSt7__cxx1112basic_stringIcSt11char_traitsIcESaIcEEixEm(ptr noundef nonnull align 8 dereferenceable(32) %2, i64 noundef %49) #22
  %51 = load i8, ptr %50, align 1
  %52 = sext i8 %51 to i32
  %53 = tail call i32 @isspace(i32 noundef %52) #21
  %.not45 = icmp eq i32 %53, 0
  br i1 %.not45, label %.critedge2, label %46, !llvm.loop !25

.critedge2:                                       ; preds = %48, %46, %42
  %.2 = phi i64 [ %.040, %42 ], [ %.1, %46 ], [ %.1, %48 ]
  %54 = sub i64 %.2, %.03951
  %55 = icmp eq i64 %.2, %.03951
  br i1 %55, label %.sink.split, label %56

56:                                               ; preds = %.critedge2
  %57 = sext i32 %26 to i64
  call void @_ZNSaIcEC1Ev(ptr noundef nonnull align 1 dereferenceable(1) %6) #22
  %58 = invoke noundef ptr @_ZNSt7__cxx1112basic_stringIcSt11char_traitsIcESaIcEE13_M_local_dataEv(ptr noundef nonnull align 8 dereferenceable(32) %0)
          to label %.noexc unwind label %71

.noexc:                                           ; preds = %56
  invoke void @_ZNSt7__cxx1112basic_stringIcSt11char_traitsIcESaIcEE12_Alloc_hiderC1EPcRKS3_(ptr noundef nonnull align 8 dereferenceable(8) %0, ptr noundef %58, ptr noundef nonnull align 1 dereferenceable(1) %6)
          to label %.noexc48 unwind label %71

.noexc48:                                         ; preds = %.noexc
  invoke void @_ZNSt7__cxx1112basic_stringIcSt11char_traitsIcESaIcEE12_M_constructEmc(ptr noundef nonnull align 8 dereferenceable(32) %0, i64 noundef %57, i8 noundef signext 32)
          to label %_ZNSt7__cxx1112basic_stringIcSt11char_traitsIcESaIcEEC2IS3_EEmcRKS3_.exit unwind label %59

59:                                               ; preds = %.noexc48
  %60 = landingpad { ptr, i32 }
          cleanup
  call void @_ZNSaIcED2Ev(ptr noundef nonnull align 1 dereferenceable(1) %0) #22
  br label %.body

_ZNSt7__cxx1112basic_stringIcSt11char_traitsIcESaIcEEC2IS3_EEmcRKS3_.exit: ; preds = %.noexc48
  call void @_ZNSaIcED1Ev(ptr noundef nonnull align 1 dereferenceable(1) %6) #22
  %61 = invoke noundef nonnull align 8 dereferenceable(32) ptr @_ZNSt7__cxx1112basic_stringIcSt11char_traitsIcESaIcEE6appendERKS4_mm(ptr noundef nonnull align 8 dereferenceable(32) %0, ptr noundef nonnull align 8 dereferenceable(32) %2, i64 noundef %.03951, i64 noundef %54)
          to label %62 unwind label %73

62:                                               ; preds = %_ZNSt7__cxx1112basic_stringIcSt11char_traitsIcESaIcEEC2IS3_EEmcRKS3_.exit
  br i1 %34, label %63, label %75

63:                                               ; preds = %62
  %64 = getelementptr inbounds i8, ptr %1, i64 13
  %65 = load i8, ptr %64, align 1
  %.not46 = icmp eq i8 %65, 0
  br i1 %.not46, label %75, label %66

66:                                               ; preds = %63
  %67 = invoke noundef nonnull align 8 dereferenceable(32) ptr @_ZNSt7__cxx1112basic_stringIcSt11char_traitsIcESaIcEE6appendEmc(ptr noundef nonnull align 8 dereferenceable(32) %0, i64 noundef 1, i8 noundef signext 32)
          to label %68 unwind label %73

68:                                               ; preds = %66
  %69 = load i8, ptr %64, align 1
  %70 = invoke noundef nonnull align 8 dereferenceable(32) ptr @_ZNSt7__cxx1112basic_stringIcSt11char_traitsIcESaIcEE6appendEmc(ptr noundef nonnull align 8 dereferenceable(32) %0, i64 noundef 1, i8 noundef signext %69)
          to label %75 unwind label %73

71:                                               ; preds = %.noexc, %56
  %72 = landingpad { ptr, i32 }
          cleanup
  br label %.body

.body:                                            ; preds = %59, %71
  %eh.lpad-body = phi { ptr, i32 } [ %72, %71 ], [ %60, %59 ]
  call void @_ZNSaIcED1Ev(ptr noundef nonnull align 1 dereferenceable(1) %6) #22
  br label %76

73:                                               ; preds = %68, %66, %_ZNSt7__cxx1112basic_stringIcSt11char_traitsIcESaIcEEC2IS3_EEmcRKS3_.exit
  %74 = landingpad { ptr, i32 }
          cleanup
  call void @_ZNSt7__cxx1112basic_stringIcSt11char_traitsIcESaIcEED1Ev(ptr noundef nonnull align 8 dereferenceable(32) %0) #22
  br label %76

.sink.split:                                      ; preds = %.critedge2, %14
  tail call void @_ZNSt7__cxx1112basic_stringIcSt11char_traitsIcESaIcEEC1Ev(ptr noundef nonnull align 8 dereferenceable(32) %0) #22
  br label %75

75:                                               ; preds = %.sink.split, %62, %63, %68
  ret void

76:                                               ; preds = %73, %.body
  %.pn = phi { ptr, i32 } [ %74, %73 ], [ %eh.lpad-body, %.body ]
  resume { ptr, i32 } %.pn
}